(dp0
I3887104
(dp1
S'scan'
p2
I458492
sS'success'
p3
I01
sS'stderr'
p4
S''
p5
sS'stdout'
p6
S'Your job 3887104 ("submit_scan_458492.sh") has been submitted\n'
p7
ssI3887105
(dp8
g2
I458493
sg3
I01
sg4
g5
sg6
S'Your job 3887105 ("submit_scan_458493.sh") has been submitted\n'
p9
ssI3887106
(dp10
g2
I458494
sg3
Nsg4
g5
sg6
S'Your job 3887106 ("submit_scan_458494.sh") has been submitted\n'
p11
ssI3887107
(dp12
g2
I458495
sg3
I01
sg4
g5
sg6
S'Your job 3887107 ("submit_scan_458495.sh") has been submitted\n'
p13
ssI3887108
(dp14
g2
I458496
sg3
Nsg4
g5
sg6
S'Your job 3887108 ("submit_scan_458496.sh") has been submitted\n'
p15
ssI3887109
(dp16
g2
I458497
sg3
I01
sg4
g5
sg6
S'Your job 3887109 ("submit_scan_458497.sh") has been submitted\n'
p17
ssI3887110
(dp18
g2
I458498
sg3
I01
sg4
g5
sg6
S'Your job 3887110 ("submit_scan_458498.sh") has been submitted\n'
p19
ssI3887111
(dp20
g2
I458499
sg3
Nsg4
g5
sg6
S'Your job 3887111 ("submit_scan_458499.sh") has been submitted\n'
p21
ssI3887112
(dp22
g2
I458500
sg3
Nsg4
g5
sg6
S'Your job 3887112 ("submit_scan_458500.sh") has been submitted\n'
p23
ssI3887113
(dp24
g2
I458501
sg3
I01
sg4
g5
sg6
S'Your job 3887113 ("submit_scan_458501.sh") has been submitted\n'
p25
ssI3887114
(dp26
g2
I458502
sg3
I01
sg4
g5
sg6
S'Your job 3887114 ("submit_scan_458502.sh") has been submitted\n'
p27
ssI3887115
(dp28
g2
I458503
sg3
Nsg4
g5
sg6
S'Your job 3887115 ("submit_scan_458503.sh") has been submitted\n'
p29
ssI3887116
(dp30
g2
I458504
sg3
I01
sg4
g5
sg6
S'Your job 3887116 ("submit_scan_458504.sh") has been submitted\n'
p31
ssI3887117
(dp32
g2
I458505
sg3
I01
sg4
g5
sg6
S'Your job 3887117 ("submit_scan_458505.sh") has been submitted\n'
p33
ssI3887118
(dp34
g2
I458506
sg3
I01
sg4
g5
sg6
S'Your job 3887118 ("submit_scan_458506.sh") has been submitted\n'
p35
ssI3887119
(dp36
g2
I458507
sg3
Nsg4
g5
sg6
S'Your job 3887119 ("submit_scan_458507.sh") has been submitted\n'
p37
ssI3887120
(dp38
g2
I458508
sg3
Nsg4
g5
sg6
S'Your job 3887120 ("submit_scan_458508.sh") has been submitted\n'
p39
ssI3887121
(dp40
g2
I458509
sg3
I01
sg4
g5
sg6
S'Your job 3887121 ("submit_scan_458509.sh") has been submitted\n'
p41
ssI3887122
(dp42
g2
I458510
sg3
I01
sg4
g5
sg6
S'Your job 3887122 ("submit_scan_458510.sh") has been submitted\n'
p43
ssI3887124
(dp44
g2
I458511
sg3
I01
sg4
g5
sg6
S'Your job 3887124 ("submit_scan_458511.sh") has been submitted\n'
p45
ssI3887126
(dp46
g2
I458512
sg3
Nsg4
g5
sg6
S'Your job 3887126 ("submit_scan_458512.sh") has been submitted\n'
p47
ssI3887128
(dp48
g2
I458513
sg3
Nsg4
g5
sg6
S'Your job 3887128 ("submit_scan_458513.sh") has been submitted\n'
p49
ssI3887130
(dp50
g2
I458514
sg3
Nsg4
g5
sg6
S'Your job 3887130 ("submit_scan_458514.sh") has been submitted\n'
p51
ssI3887131
(dp52
g2
I458515
sg3
I01
sg4
g5
sg6
S'Your job 3887131 ("submit_scan_458515.sh") has been submitted\n'
p53
ssI3887133
(dp54
g2
I458516
sg3
Nsg4
g5
sg6
S'Your job 3887133 ("submit_scan_458516.sh") has been submitted\n'
p55
ssI3887134
(dp56
g2
I458517
sg3
I01
sg4
g5
sg6
S'Your job 3887134 ("submit_scan_458517.sh") has been submitted\n'
p57
ssI3887135
(dp58
g2
I458518
sg3
I01
sg4
g5
sg6
S'Your job 3887135 ("submit_scan_458518.sh") has been submitted\n'
p59
ssI3887136
(dp60
g2
I458519
sg3
I01
sg4
g5
sg6
S'Your job 3887136 ("submit_scan_458519.sh") has been submitted\n'
p61
ssI3887137
(dp62
g2
I458520
sg3
Nsg4
g5
sg6
S'Your job 3887137 ("submit_scan_458520.sh") has been submitted\n'
p63
ssI3887138
(dp64
g2
I458521
sg3
I01
sg4
g5
sg6
S'Your job 3887138 ("submit_scan_458521.sh") has been submitted\n'
p65
ssI3887139
(dp66
g2
I458522
sg3
I01
sg4
g5
sg6
S'Your job 3887139 ("submit_scan_458522.sh") has been submitted\n'
p67
ssI3887141
(dp68
g2
I458523
sg3
I01
sg4
g5
sg6
S'Your job 3887141 ("submit_scan_458523.sh") has been submitted\n'
p69
ssI3887142
(dp70
g2
I458524
sg3
I01
sg4
g5
sg6
S'Your job 3887142 ("submit_scan_458524.sh") has been submitted\n'
p71
ssI3887143
(dp72
g2
I458525
sg3
I01
sg4
g5
sg6
S'Your job 3887143 ("submit_scan_458525.sh") has been submitted\n'
p73
ssI3887144
(dp74
g2
I458526
sg3
Nsg4
g5
sg6
S'Your job 3887144 ("submit_scan_458526.sh") has been submitted\n'
p75
ssI3887145
(dp76
g2
I458527
sg3
Nsg4
g5
sg6
S'Your job 3887145 ("submit_scan_458527.sh") has been submitted\n'
p77
ssI3887146
(dp78
g2
I458528
sg3
I01
sg4
g5
sg6
S'Your job 3887146 ("submit_scan_458528.sh") has been submitted\n'
p79
ssI3887147
(dp80
g2
I458529
sg3
Nsg4
g5
sg6
S'Your job 3887147 ("submit_scan_458529.sh") has been submitted\n'
p81
ssI3887148
(dp82
g2
I458530
sg3
Nsg4
g5
sg6
S'Your job 3887148 ("submit_scan_458530.sh") has been submitted\n'
p83
ssI3887149
(dp84
g2
I458531
sg3
I01
sg4
g5
sg6
S'Your job 3887149 ("submit_scan_458531.sh") has been submitted\n'
p85
ssI3887150
(dp86
g2
I458532
sg3
Nsg4
g5
sg6
S'Your job 3887150 ("submit_scan_458532.sh") has been submitted\n'
p87
ssI3887151
(dp88
g2
I458533
sg3
I01
sg4
g5
sg6
S'Your job 3887151 ("submit_scan_458533.sh") has been submitted\n'
p89
ssI3887152
(dp90
g2
I458534
sg3
Nsg4
g5
sg6
S'Your job 3887152 ("submit_scan_458534.sh") has been submitted\n'
p91
ssI3887153
(dp92
g2
I458535
sg3
I01
sg4
g5
sg6
S'Your job 3887153 ("submit_scan_458535.sh") has been submitted\n'
p93
ssI3887154
(dp94
g2
I458536
sg3
I01
sg4
g5
sg6
S'Your job 3887154 ("submit_scan_458536.sh") has been submitted\n'
p95
ssI3887155
(dp96
g2
I458537
sg3
Nsg4
g5
sg6
S'Your job 3887155 ("submit_scan_458537.sh") has been submitted\n'
p97
ssI3887156
(dp98
g2
I458538
sg3
Nsg4
g5
sg6
S'Your job 3887156 ("submit_scan_458538.sh") has been submitted\n'
p99
ssI3887157
(dp100
g2
I458539
sg3
I01
sg4
g5
sg6
S'Your job 3887157 ("submit_scan_458539.sh") has been submitted\n'
p101
ssI3887158
(dp102
g2
I458540
sg3
Nsg4
g5
sg6
S'Your job 3887158 ("submit_scan_458540.sh") has been submitted\n'
p103
ssI3887159
(dp104
g2
I458541
sg3
I01
sg4
g5
sg6
S'Your job 3887159 ("submit_scan_458541.sh") has been submitted\n'
p105
ssI3887160
(dp106
g2
I458542
sg3
Nsg4
g5
sg6
S'Your job 3887160 ("submit_scan_458542.sh") has been submitted\n'
p107
ssI3887161
(dp108
g2
I458543
sg3
Nsg4
g5
sg6
S'Your job 3887161 ("submit_scan_458543.sh") has been submitted\n'
p109
ssI3887162
(dp110
g2
I458544
sg3
Nsg4
g5
sg6
S'Your job 3887162 ("submit_scan_458544.sh") has been submitted\n'
p111
ssI3887163
(dp112
g2
I458545
sg3
Nsg4
g5
sg6
S'Your job 3887163 ("submit_scan_458545.sh") has been submitted\n'
p113
ssI3887164
(dp114
g2
I458546
sg3
Nsg4
g5
sg6
S'Your job 3887164 ("submit_scan_458546.sh") has been submitted\n'
p115
ssI3887165
(dp116
g2
I458547
sg3
Nsg4
g5
sg6
S'Your job 3887165 ("submit_scan_458547.sh") has been submitted\n'
p117
ssI3887166
(dp118
g2
I458548
sg3
I01
sg4
g5
sg6
S'Your job 3887166 ("submit_scan_458548.sh") has been submitted\n'
p119
ssI3887167
(dp120
g2
I458549
sg3
I01
sg4
g5
sg6
S'Your job 3887167 ("submit_scan_458549.sh") has been submitted\n'
p121
ssI3887168
(dp122
g2
I458550
sg3
Nsg4
g5
sg6
S'Your job 3887168 ("submit_scan_458550.sh") has been submitted\n'
p123
ssI3887169
(dp124
g2
I458551
sg3
Nsg4
g5
sg6
S'Your job 3887169 ("submit_scan_458551.sh") has been submitted\n'
p125
ssI3887170
(dp126
g2
I458552
sg3
I01
sg4
g5
sg6
S'Your job 3887170 ("submit_scan_458552.sh") has been submitted\n'
p127
ssI3887171
(dp128
g2
I458553
sg3
Nsg4
g5
sg6
S'Your job 3887171 ("submit_scan_458553.sh") has been submitted\n'
p129
ssI3887172
(dp130
g2
I458554
sg3
Nsg4
g5
sg6
S'Your job 3887172 ("submit_scan_458554.sh") has been submitted\n'
p131
ssI3887173
(dp132
g2
I458555
sg3
I01
sg4
g5
sg6
S'Your job 3887173 ("submit_scan_458555.sh") has been submitted\n'
p133
ssI3887174
(dp134
g2
I458556
sg3
Nsg4
g5
sg6
S'Your job 3887174 ("submit_scan_458556.sh") has been submitted\n'
p135
ssI3887175
(dp136
g2
I458557
sg3
I01
sg4
g5
sg6
S'Your job 3887175 ("submit_scan_458557.sh") has been submitted\n'
p137
ssI3887176
(dp138
g2
I458558
sg3
Nsg4
g5
sg6
S'Your job 3887176 ("submit_scan_458558.sh") has been submitted\n'
p139
ssI3887177
(dp140
g2
I458559
sg3
I01
sg4
g5
sg6
S'Your job 3887177 ("submit_scan_458559.sh") has been submitted\n'
p141
ssI3887178
(dp142
g2
I458560
sg3
Nsg4
g5
sg6
S'Your job 3887178 ("submit_scan_458560.sh") has been submitted\n'
p143
ssI3887179
(dp144
g2
I458561
sg3
Nsg4
g5
sg6
S'Your job 3887179 ("submit_scan_458561.sh") has been submitted\n'
p145
ssI3887180
(dp146
g2
I458562
sg3
I01
sg4
g5
sg6
S'Your job 3887180 ("submit_scan_458562.sh") has been submitted\n'
p147
ssI3887181
(dp148
g2
I458563
sg3
Nsg4
g5
sg6
S'Your job 3887181 ("submit_scan_458563.sh") has been submitted\n'
p149
ssI3887182
(dp150
g2
I458564
sg3
Nsg4
g5
sg6
S'Your job 3887182 ("submit_scan_458564.sh") has been submitted\n'
p151
ssI3887183
(dp152
g2
I458565
sg3
Nsg4
g5
sg6
S'Your job 3887183 ("submit_scan_458565.sh") has been submitted\n'
p153
ssI3887184
(dp154
g2
I458566
sg3
Nsg4
g5
sg6
S'Your job 3887184 ("submit_scan_458566.sh") has been submitted\n'
p155
ssI3887185
(dp156
g2
I458567
sg3
Nsg4
g5
sg6
S'Your job 3887185 ("submit_scan_458567.sh") has been submitted\n'
p157
ssI3887186
(dp158
g2
I458568
sg3
Nsg4
g5
sg6
S'Your job 3887186 ("submit_scan_458568.sh") has been submitted\n'
p159
ssI3887187
(dp160
g2
I458569
sg3
Nsg4
g5
sg6
S'Your job 3887187 ("submit_scan_458569.sh") has been submitted\n'
p161
ssI3887188
(dp162
g2
I458570
sg3
Nsg4
g5
sg6
S'Your job 3887188 ("submit_scan_458570.sh") has been submitted\n'
p163
ssI3887189
(dp164
g2
I458571
sg3
I01
sg4
g5
sg6
S'Your job 3887189 ("submit_scan_458571.sh") has been submitted\n'
p165
ssI3887190
(dp166
g2
I458572
sg3
Nsg4
g5
sg6
S'Your job 3887190 ("submit_scan_458572.sh") has been submitted\n'
p167
ssI3887191
(dp168
g2
I458573
sg3
Nsg4
g5
sg6
S'Your job 3887191 ("submit_scan_458573.sh") has been submitted\n'
p169
ssI3887192
(dp170
g2
I458574
sg3
Nsg4
g5
sg6
S'Your job 3887192 ("submit_scan_458574.sh") has been submitted\n'
p171
ssI3887193
(dp172
g2
I458575
sg3
Nsg4
g5
sg6
S'Your job 3887193 ("submit_scan_458575.sh") has been submitted\n'
p173
ssI3887194
(dp174
g2
I458576
sg3
Nsg4
g5
sg6
S'Your job 3887194 ("submit_scan_458576.sh") has been submitted\n'
p175
ssI3887195
(dp176
g2
I458577
sg3
I01
sg4
g5
sg6
S'Your job 3887195 ("submit_scan_458577.sh") has been submitted\n'
p177
ssI3887196
(dp178
g2
I458578
sg3
Nsg4
g5
sg6
S'Your job 3887196 ("submit_scan_458578.sh") has been submitted\n'
p179
ssI3887197
(dp180
g2
I458579
sg3
Nsg4
g5
sg6
S'Your job 3887197 ("submit_scan_458579.sh") has been submitted\n'
p181
ssI3887198
(dp182
g2
I458580
sg3
Nsg4
g5
sg6
S'Your job 3887198 ("submit_scan_458580.sh") has been submitted\n'
p183
ssI3887199
(dp184
g2
I458581
sg3
Nsg4
g5
sg6
S'Your job 3887199 ("submit_scan_458581.sh") has been submitted\n'
p185
ssI3887200
(dp186
g2
I458582
sg3
Nsg4
g5
sg6
S'Your job 3887200 ("submit_scan_458582.sh") has been submitted\n'
p187
ssI3887201
(dp188
g2
I458583
sg3
Nsg4
g5
sg6
S'Your job 3887201 ("submit_scan_458583.sh") has been submitted\n'
p189
ssI3887202
(dp190
g2
I458584
sg3
Nsg4
g5
sg6
S'Your job 3887202 ("submit_scan_458584.sh") has been submitted\n'
p191
ssI3887203
(dp192
g2
I458585
sg3
Nsg4
g5
sg6
S'Your job 3887203 ("submit_scan_458585.sh") has been submitted\n'
p193
ssI3887204
(dp194
g2
I458586
sg3
Nsg4
g5
sg6
S'Your job 3887204 ("submit_scan_458586.sh") has been submitted\n'
p195
ssI3887205
(dp196
g2
I458587
sg3
Nsg4
g5
sg6
S'Your job 3887205 ("submit_scan_458587.sh") has been submitted\n'
p197
ssI3887206
(dp198
g2
I458588
sg3
Nsg4
g5
sg6
S'Your job 3887206 ("submit_scan_458588.sh") has been submitted\n'
p199
ssI3887207
(dp200
g2
I458589
sg3
I01
sg4
g5
sg6
S'Your job 3887207 ("submit_scan_458589.sh") has been submitted\n'
p201
ssI3887208
(dp202
g2
I458590
sg3
I01
sg4
g5
sg6
S'Your job 3887208 ("submit_scan_458590.sh") has been submitted\n'
p203
ssI3887209
(dp204
g2
I458591
sg3
I01
sg4
g5
sg6
S'Your job 3887209 ("submit_scan_458591.sh") has been submitted\n'
p205
ssI3887210
(dp206
g2
I458592
sg3
I01
sg4
g5
sg6
S'Your job 3887210 ("submit_scan_458592.sh") has been submitted\n'
p207
ssI3887211
(dp208
g2
I458593
sg3
I01
sg4
g5
sg6
S'Your job 3887211 ("submit_scan_458593.sh") has been submitted\n'
p209
ssI3887212
(dp210
g2
I458594
sg3
I01
sg4
g5
sg6
S'Your job 3887212 ("submit_scan_458594.sh") has been submitted\n'
p211
ssI3887213
(dp212
g2
I458595
sg3
I01
sg4
g5
sg6
S'Your job 3887213 ("submit_scan_458595.sh") has been submitted\n'
p213
ssI3887214
(dp214
g2
I458596
sg3
I01
sg4
g5
sg6
S'Your job 3887214 ("submit_scan_458596.sh") has been submitted\n'
p215
ssI3887215
(dp216
g2
I458597
sg3
I01
sg4
g5
sg6
S'Your job 3887215 ("submit_scan_458597.sh") has been submitted\n'
p217
ssI3887216
(dp218
g2
I458598
sg3
I01
sg4
g5
sg6
S'Your job 3887216 ("submit_scan_458598.sh") has been submitted\n'
p219
ssI3887217
(dp220
g2
I458599
sg3
I01
sg4
g5
sg6
S'Your job 3887217 ("submit_scan_458599.sh") has been submitted\n'
p221
ssI3887218
(dp222
g2
I458600
sg3
I01
sg4
g5
sg6
S'Your job 3887218 ("submit_scan_458600.sh") has been submitted\n'
p223
ssI3887219
(dp224
g2
I458601
sg3
Nsg4
g5
sg6
S'Your job 3887219 ("submit_scan_458601.sh") has been submitted\n'
p225
ssI3887086
(dp226
g2
I458468
sg3
I01
sg4
g5
sg6
S'Your job 3887086 ("submit_scan_458468.sh") has been submitted\n'
p227
ssI3887087
(dp228
g2
I458469
sg3
I01
sg4
g5
sg6
S'Your job 3887087 ("submit_scan_458469.sh") has been submitted\n'
p229
ssI3887088
(dp230
g2
I458470
sg3
I01
sg4
g5
sg6
S'Your job 3887088 ("submit_scan_458470.sh") has been submitted\n'
p231
ssI3887089
(dp232
g2
I458471
sg3
I01
sg4
g5
sg6
S'Your job 3887089 ("submit_scan_458471.sh") has been submitted\n'
p233
ssI3887090
(dp234
g2
I458472
sg3
Nsg4
g5
sg6
S'Your job 3887090 ("submit_scan_458472.sh") has been submitted\n'
p235
ssI3887091
(dp236
g2
I458473
sg3
I01
sg4
g5
sg6
S'Your job 3887091 ("submit_scan_458473.sh") has been submitted\n'
p237
ssI3887092
(dp238
g2
I458474
sg3
I01
sg4
g5
sg6
S'Your job 3887092 ("submit_scan_458474.sh") has been submitted\n'
p239
ssI3887093
(dp240
g2
I458475
sg3
I01
sg4
g5
sg6
S'Your job 3887093 ("submit_scan_458475.sh") has been submitted\n'
p241
ssI3887094
(dp242
g2
I458476
sg3
I01
sg4
g5
sg6
S'Your job 3887094 ("submit_scan_458476.sh") has been submitted\n'
p243
ssI3887095
(dp244
g2
I458477
sg3
Nsg4
g5
sg6
S'Your job 3887095 ("submit_scan_458477.sh") has been submitted\n'
p245
ssI3887096
(dp246
g2
I458484
sg3
Nsg4
g5
sg6
S'Your job 3887096 ("submit_scan_458484.sh") has been submitted\n'
p247
ssI3887097
(dp248
g2
I458485
sg3
Nsg4
g5
sg6
S'Your job 3887097 ("submit_scan_458485.sh") has been submitted\n'
p249
ssI3887098
(dp250
g2
I458486
sg3
I01
sg4
g5
sg6
S'Your job 3887098 ("submit_scan_458486.sh") has been submitted\n'
p251
ssI3887099
(dp252
g2
I458487
sg3
Nsg4
g5
sg6
S'Your job 3887099 ("submit_scan_458487.sh") has been submitted\n'
p253
ssI3887100
(dp254
g2
I458488
sg3
I01
sg4
g5
sg6
S'Your job 3887100 ("submit_scan_458488.sh") has been submitted\n'
p255
ssI3887101
(dp256
g2
I458489
sg3
I01
sg4
g5
sg6
S'Your job 3887101 ("submit_scan_458489.sh") has been submitted\n'
p257
ssI3887102
(dp258
g2
I458490
sg3
I01
sg4
g5
sg6
S'Your job 3887102 ("submit_scan_458490.sh") has been submitted\n'
p259
ssI3887103
(dp260
g2
I458491
sg3
I01
sg4
g5
sg6
S'Your job 3887103 ("submit_scan_458491.sh") has been submitted\n'
p261
ss.